; Function Attrs: nounwind uwtable
define internal ptr @bytes_checkexact(ptr readnone captures(none) %0, ptr noundef readonly %1) #0 {
  %3 = icmp eq ptr %1, @_Py_NoneStruct
  %spec.store.select = select i1 %3, ptr null, ptr %1
  %4 = getelementptr i8, ptr %spec.store.select, i64 8
  %spec.store.select.val = load ptr, ptr %4, align 8, !tbaa !3
  %5 = icmp eq ptr %spec.store.select.val, @PyBytes_Type
  %6 = zext i1 %5 to i64
  %7 = tail call ptr @PyLong_FromLong(i64 noundef %6) #4
  ret ptr %7
}